target datalayout = "e-m:e-p270:32:32-p271:32:32-p272:64:64-i64:64-i128:128-f80:128-n8:16:32:64-S128"
target triple = "x86_64-pc-linux-gnu"

%struct.lua_State = type { %struct.GCRef, i8, i8, i8, i8, %struct.MRef, %struct.GCRef, ptr, ptr, %struct.MRef, %struct.MRef, %struct.GCRef, %struct.GCRef, ptr, i32 }
%struct.MRef = type { i64 }
%struct.GCRef = type { i64 }
%union.TValue = type { i64 }
%struct.CTState = type { ptr, i32, i32, ptr, ptr, ptr, %struct.CCallback, [128 x i16] }
%struct.CCallback = type { [8 x %union.FPRCBArg], [8 x i64], ptr, ptr, ptr, i32, i32, i32 }
%union.FPRCBArg = type { double }
%struct.GCstr = type { %struct.GCRef, i8, i8, i8, i8, i32, i32, i32 }
%struct.GCcdata = type { %struct.GCRef, i8, i8, i16 }

@lj_obj_itypename = external hidden constant [14 x ptr], align 16
@.str.3 = private unnamed_addr constant [23 x i8] c"copy of dead GC object\00", align 1

; Function Attrs: alwaysinline nounwind uwtable
define internal void @checklivetv(ptr noundef %0, ptr noundef %1, ptr noundef %2) #3 {
  %4 = alloca ptr, align 8
  %5 = alloca ptr, align 8
  %6 = alloca ptr, align 8
  store ptr %0, ptr %4, align 8, !tbaa !4
  store ptr %1, ptr %5, align 8, !tbaa !30
  store ptr %2, ptr %6, align 8, !tbaa !35
  ret void
}

; Function Attrs: alwaysinline nounwind uwtable
define internal void @copyTV(ptr noundef %0, ptr noundef %1, ptr noundef %2) #3 {
  %4 = alloca ptr, align 8
  %5 = alloca ptr, align 8
  %6 = alloca ptr, align 8
  store ptr %0, ptr %4, align 8, !tbaa !4
  store ptr %1, ptr %5, align 8, !tbaa !30
  store ptr %2, ptr %6, align 8, !tbaa !30
  %7 = load ptr, ptr %5, align 8, !tbaa !30
  %8 = load ptr, ptr %6, align 8, !tbaa !30
  call void @llvm.memcpy.p0.p0.i64(ptr align 8 %7, ptr align 8 %8, i64 8, i1 false), !tbaa.struct !63
  %9 = load ptr, ptr %4, align 8, !tbaa !4
  %10 = load ptr, ptr %5, align 8, !tbaa !30
  call void @checklivetv(ptr noundef %9, ptr noundef %10, ptr noundef @.str.3)
  ret void
}

; Function Attrs: nounwind uwtable
define internal i32 @ffi_index_meta(ptr noundef %0, ptr noundef %1, ptr noundef %2, i32 noundef %3) #0 {
  %5 = alloca i32, align 4
  %6 = alloca ptr, align 8
  %7 = alloca ptr, align 8
  %8 = alloca ptr, align 8
  %9 = alloca i32, align 4
  %10 = alloca i32, align 4
  %11 = alloca ptr, align 8
  %12 = alloca ptr, align 8
  %13 = alloca ptr, align 8
  %14 = alloca ptr, align 8
  %15 = alloca ptr, align 8
  %16 = alloca i32, align 4
  %17 = alloca ptr, align 8
  store ptr %0, ptr %6, align 8, !tbaa !4
  store ptr %1, ptr %7, align 8, !tbaa !9
  store ptr %2, ptr %8, align 8, !tbaa !38
  store i32 %3, ptr %9, align 4, !tbaa !34
  call void @llvm.lifetime.start.p0(i64 4, ptr %10) #10
  %18 = load ptr, ptr %8, align 8, !tbaa !38
  %19 = load ptr, ptr %7, align 8, !tbaa !9
  %20 = getelementptr inbounds nuw %struct.CTState, ptr %19, i32 0, i32 0
  %21 = load ptr, ptr %20, align 8, !tbaa !60
  %22 = ptrtoint ptr %18 to i64
  %23 = ptrtoint ptr %21 to i64
  %24 = sub i64 %22, %23
  %25 = sdiv exact i64 %24, 24
  %26 = trunc i64 %25 to i32
  store i32 %26, ptr %10, align 4, !tbaa !34
  call void @llvm.lifetime.start.p0(i64 8, ptr %11) #10
  %27 = load ptr, ptr %7, align 8, !tbaa !9
  %28 = load i32, ptr %10, align 4, !tbaa !34
  %29 = load i32, ptr %9, align 4, !tbaa !34
  %30 = call ptr @lj_ctype_meta(ptr noundef %27, i32 noundef %28, i32 noundef %29)
  store ptr %30, ptr %11, align 8, !tbaa !30
  call void @llvm.lifetime.start.p0(i64 8, ptr %12) #10
  %31 = load ptr, ptr %6, align 8, !tbaa !4
  %32 = getelementptr inbounds nuw %struct.lua_State, ptr %31, i32 0, i32 7
  %33 = load ptr, ptr %32, align 8, !tbaa !37
  store ptr %33, ptr %12, align 8, !tbaa !30
  %34 = load ptr, ptr %11, align 8, !tbaa !30
  %35 = icmp ne ptr %34, null
  br i1 %35, label %115, label %36

36:                                               ; preds = %4
  br label %37

37:                                               ; preds = %145, %36
  %38 = load ptr, ptr %6, align 8, !tbaa !4
  %39 = load i32, ptr %10, align 4, !tbaa !34
  %40 = call ptr @lj_ctype_repr(ptr noundef %38, i32 noundef %39, ptr noundef null)
  %41 = getelementptr inbounds %struct.GCstr, ptr %40, i64 1
  store ptr %41, ptr %13, align 8, !tbaa !35
  %42 = load ptr, ptr %6, align 8, !tbaa !4
  %43 = getelementptr inbounds nuw %struct.lua_State, ptr %42, i32 0, i32 7
  %44 = load ptr, ptr %43, align 8, !tbaa !37
  %45 = getelementptr inbounds %union.TValue, ptr %44, i64 1
  %46 = load i64, ptr %45, align 8, !tbaa !26
  %47 = ashr i64 %46, 47
  %48 = trunc i64 %47 to i32
  %49 = icmp eq i32 %48, -5
  br i1 %49, label %50, label %62

50:                                               ; preds = %37
  %51 = load ptr, ptr %6, align 8, !tbaa !4
  %52 = load ptr, ptr %13, align 8, !tbaa !35
  %53 = load ptr, ptr %6, align 8, !tbaa !4
  %54 = getelementptr inbounds nuw %struct.lua_State, ptr %53, i32 0, i32 7
  %55 = load ptr, ptr %54, align 8, !tbaa !37
  %56 = getelementptr inbounds %union.TValue, ptr %55, i64 1
  %57 = getelementptr inbounds nuw %struct.GCRef, ptr %56, i32 0, i32 0
  %58 = load i64, ptr %57, align 8, !tbaa !26
  %59 = and i64 %58, 140737488355327
  %60 = inttoptr i64 %59 to ptr
  %61 = getelementptr inbounds %struct.GCstr, ptr %60, i64 1
  call void (ptr, i32, ...) @lj_err_callerv(ptr noundef %51, i32 noundef 3480, ptr noundef %52, ptr noundef %61) #11
  unreachable

62:                                               ; preds = %37
  call void @llvm.lifetime.start.p0(i64 8, ptr %14) #10
  %63 = load ptr, ptr %6, align 8, !tbaa !4
  %64 = getelementptr inbounds nuw %struct.lua_State, ptr %63, i32 0, i32 7
  %65 = load ptr, ptr %64, align 8, !tbaa !37
  %66 = getelementptr inbounds %union.TValue, ptr %65, i64 1
  %67 = load i64, ptr %66, align 8, !tbaa !26
  %68 = ashr i64 %67, 47
  %69 = trunc i64 %68 to i32
  %70 = icmp eq i32 %69, -11
  br i1 %70, label %71, label %86

71:                                               ; preds = %62
  %72 = load ptr, ptr %6, align 8, !tbaa !4
  %73 = load ptr, ptr %6, align 8, !tbaa !4
  %74 = getelementptr inbounds nuw %struct.lua_State, ptr %73, i32 0, i32 7
  %75 = load ptr, ptr %74, align 8, !tbaa !37
  %76 = getelementptr inbounds %union.TValue, ptr %75, i64 1
  %77 = getelementptr inbounds nuw %struct.GCRef, ptr %76, i32 0, i32 0
  %78 = load i64, ptr %77, align 8, !tbaa !26
  %79 = and i64 %78, 140737488355327
  %80 = inttoptr i64 %79 to ptr
  %81 = getelementptr inbounds nuw %struct.GCcdata, ptr %80, i32 0, i32 3
  %82 = load i16, ptr %81, align 2, !tbaa !26
  %83 = zext i16 %82 to i32
  %84 = call ptr @lj_ctype_repr(ptr noundef %72, i32 noundef %83, ptr noundef null)
  %85 = getelementptr inbounds %struct.GCstr, ptr %84, i64 1
  br label %110

86:                                               ; preds = %62
  %87 = load ptr, ptr %6, align 8, !tbaa !4
  %88 = getelementptr inbounds nuw %struct.lua_State, ptr %87, i32 0, i32 7
  %89 = load ptr, ptr %88, align 8, !tbaa !37
  %90 = getelementptr inbounds %union.TValue, ptr %89, i64 1
  %91 = load i64, ptr %90, align 8, !tbaa !26
  %92 = ashr i64 %91, 47
  %93 = trunc i64 %92 to i32
  %94 = icmp ule i32 %93, -14
  br i1 %94, label %95, label %96

95:                                               ; preds = %86
  br label %105

96:                                               ; preds = %86
  %97 = load ptr, ptr %6, align 8, !tbaa !4
  %98 = getelementptr inbounds nuw %struct.lua_State, ptr %97, i32 0, i32 7
  %99 = load ptr, ptr %98, align 8, !tbaa !37
  %100 = getelementptr inbounds %union.TValue, ptr %99, i64 1
  %101 = load i64, ptr %100, align 8, !tbaa !26
  %102 = ashr i64 %101, 47
  %103 = trunc i64 %102 to i32
  %104 = xor i32 %103, -1
  br label %105

105:                                              ; preds = %96, %95
  %106 = phi i32 [ 13, %95 ], [ %104, %96 ]
  %107 = zext i32 %106 to i64
  %108 = getelementptr inbounds nuw [14 x ptr], ptr @lj_obj_itypename, i64 0, i64 %107
  %109 = load ptr, ptr %108, align 8, !tbaa !35
  br label %110

110:                                              ; preds = %105, %71
  %111 = phi ptr [ %85, %71 ], [ %109, %105 ]
  store ptr %111, ptr %14, align 8, !tbaa !35
  %112 = load ptr, ptr %6, align 8, !tbaa !4
  %113 = load ptr, ptr %13, align 8, !tbaa !35
  %114 = load ptr, ptr %14, align 8, !tbaa !35
  call void (ptr, i32, ...) @lj_err_callerv(ptr noundef %112, i32 noundef 3533, ptr noundef %113, ptr noundef %114) #11
  unreachable

115:                                              ; preds = %4
  %116 = load ptr, ptr %11, align 8, !tbaa !30
  %117 = load i64, ptr %116, align 8, !tbaa !26
  %118 = ashr i64 %117, 47
  %119 = trunc i64 %118 to i32
  %120 = icmp eq i32 %119, -9
  br i1 %120, label %176, label %121

121:                                              ; preds = %115
  %122 = load i32, ptr %9, align 4, !tbaa !34
  %123 = icmp eq i32 %122, 0
  br i1 %123, label %124, label %148

124:                                              ; preds = %121
  call void @llvm.lifetime.start.p0(i64 8, ptr %15) #10
  %125 = load ptr, ptr %6, align 8, !tbaa !4
  %126 = load ptr, ptr %11, align 8, !tbaa !30
  %127 = load ptr, ptr %12, align 8, !tbaa !30
  %128 = getelementptr inbounds %union.TValue, ptr %127, i64 1
  %129 = call ptr @lj_meta_tget(ptr noundef %125, ptr noundef %126, ptr noundef %128)
  store ptr %129, ptr %15, align 8, !tbaa !30
  %130 = load ptr, ptr %15, align 8, !tbaa !30
  %131 = icmp ne ptr %130, null
  br i1 %131, label %132, label %144

132:                                              ; preds = %124
  %133 = load ptr, ptr %15, align 8, !tbaa !30
  %134 = load i64, ptr %133, align 8, !tbaa !26
  %135 = icmp eq i64 %134, -1
  br i1 %135, label %136, label %137

136:                                              ; preds = %132
  store i32 2, ptr %16, align 4
  br label %145

137:                                              ; preds = %132
  %138 = load ptr, ptr %6, align 8, !tbaa !4
  %139 = load ptr, ptr %6, align 8, !tbaa !4
  %140 = getelementptr inbounds nuw %struct.lua_State, ptr %139, i32 0, i32 8
  %141 = load ptr, ptr %140, align 8, !tbaa !11
  %142 = getelementptr inbounds %union.TValue, ptr %141, i64 -1
  %143 = load ptr, ptr %15, align 8, !tbaa !30
  call void @copyTV(ptr noundef %138, ptr noundef %142, ptr noundef %143)
  store i32 1, ptr %5, align 4
  store i32 1, ptr %16, align 4
  br label %145

144:                                              ; preds = %124
  store i32 0, ptr %16, align 4
  br label %145

145:                                              ; preds = %144, %137, %136
  call void @llvm.lifetime.end.p0(i64 8, ptr %15) #10
  %146 = load i32, ptr %16, align 4
  switch i32 %146, label %180 [
    i32 0, label %147
    i32 2, label %37
  ]

147:                                              ; preds = %145
  br label %165

148:                                              ; preds = %121
  call void @llvm.lifetime.start.p0(i64 8, ptr %17) #10
  %149 = load ptr, ptr %6, align 8, !tbaa !4
  %150 = load ptr, ptr %11, align 8, !tbaa !30
  %151 = load ptr, ptr %12, align 8, !tbaa !30
  %152 = getelementptr inbounds %union.TValue, ptr %151, i64 1
  %153 = call ptr @lj_meta_tset(ptr noundef %149, ptr noundef %150, ptr noundef %152)
  store ptr %153, ptr %17, align 8, !tbaa !30
  %154 = load ptr, ptr %17, align 8, !tbaa !30
  %155 = icmp ne ptr %154, null
  br i1 %155, label %156, label %161

156:                                              ; preds = %148
  %157 = load ptr, ptr %6, align 8, !tbaa !4
  %158 = load ptr, ptr %17, align 8, !tbaa !30
  %159 = load ptr, ptr %12, align 8, !tbaa !30
  %160 = getelementptr inbounds %union.TValue, ptr %159, i64 2
  call void @copyTV(ptr noundef %157, ptr noundef %158, ptr noundef %160)
  store i32 0, ptr %5, align 4
  store i32 1, ptr %16, align 4
  br label %162

161:                                              ; preds = %148
  store i32 0, ptr %16, align 4
  br label %162

162:                                              ; preds = %161, %156
  call void @llvm.lifetime.end.p0(i64 8, ptr %17) #10
  %163 = load i32, ptr %16, align 4
  switch i32 %163, label %180 [
    i32 0, label %164
  ]

164:                                              ; preds = %162
  br label %165

165:                                              ; preds = %164, %147
  %166 = load ptr, ptr %6, align 8, !tbaa !4
  %167 = load ptr, ptr %12, align 8, !tbaa !30
  %168 = load ptr, ptr %6, align 8, !tbaa !4
  %169 = getelementptr inbounds nuw %struct.lua_State, ptr %168, i32 0, i32 8
  %170 = load ptr, ptr %169, align 8, !tbaa !11
  call void @copyTV(ptr noundef %166, ptr noundef %167, ptr noundef %170)
  %171 = load ptr, ptr %6, align 8, !tbaa !4
  %172 = getelementptr inbounds nuw %struct.lua_State, ptr %171, i32 0, i32 8
  %173 = load ptr, ptr %172, align 8, !tbaa !11
  %174 = getelementptr inbounds %union.TValue, ptr %173, i64 -1
  %175 = getelementptr inbounds %union.TValue, ptr %174, i64 -1
  store ptr %175, ptr %11, align 8, !tbaa !30
  br label %176

176:                                              ; preds = %165, %115
  %177 = load ptr, ptr %6, align 8, !tbaa !4
  %178 = load ptr, ptr %11, align 8, !tbaa !30
  %179 = call i32 @lj_meta_tailcall(ptr noundef %177, ptr noundef %178)
  store i32 %179, ptr %5, align 4
  store i32 1, ptr %16, align 4
  br label %180

180:                                              ; preds = %176, %162, %145
  call void @llvm.lifetime.end.p0(i64 8, ptr %12) #10
  call void @llvm.lifetime.end.p0(i64 8, ptr %11) #10
  call void @llvm.lifetime.end.p0(i64 4, ptr %10) #10
  %181 = load i32, ptr %5, align 4
  ret i32 %181
}