; Function Attrs: nounwind uwtable
define internal fastcc i32 @ffi_index_meta(ptr noundef %0, ptr noundef %1, ptr noundef %2, i32 noundef range(i32 0, 2) %3) unnamed_addr #0 {
  %5 = load ptr, ptr %1, align 8, !tbaa !51
  %6 = ptrtoint ptr %2 to i64
  %7 = ptrtoint ptr %5 to i64
  %8 = sub i64 %6, %7
  %9 = sdiv exact i64 %8, 24
  %10 = trunc i64 %9 to i32
  %11 = tail call ptr @lj_ctype_meta(ptr noundef nonnull %1, i32 noundef %10, i32 noundef %3) #9
  %12 = getelementptr inbounds nuw i8, ptr %0, i64 32
  %13 = load ptr, ptr %12, align 8, !tbaa !44
  %.not = icmp eq ptr %11, null
  br i1 %.not, label %14, label %39

14:                                               ; preds = %47, %4
  %15 = tail call ptr @lj_ctype_repr(ptr noundef nonnull %0, i32 noundef %10, ptr noundef null) #9
  %16 = getelementptr inbounds nuw i8, ptr %15, i64 24
  %17 = load ptr, ptr %12, align 8, !tbaa !44
  %18 = getelementptr inbounds nuw i8, ptr %17, i64 8
  %19 = load i64, ptr %18, align 8, !tbaa !23
  %20 = ashr i64 %19, 47
  switch i64 %20, label %33 [
    i64 -5, label %21
    i64 -11, label %25
  ]

21:                                               ; preds = %14
  %22 = and i64 %19, 140737488355327
  %23 = inttoptr i64 %22 to ptr
  %24 = getelementptr inbounds nuw i8, ptr %23, i64 24
  tail call void (ptr, i32, ...) @lj_err_callerv(ptr noundef nonnull %0, i32 noundef 3480, ptr noundef nonnull %16, ptr noundef nonnull %24) #10
  unreachable

25:                                               ; preds = %14
  %26 = and i64 %19, 140737488355327
  %27 = inttoptr i64 %26 to ptr
  %28 = getelementptr inbounds nuw i8, ptr %27, i64 10
  %29 = load i16, ptr %28, align 2, !tbaa !23
  %30 = zext i16 %29 to i32
  %31 = tail call ptr @lj_ctype_repr(ptr noundef nonnull %0, i32 noundef %30, ptr noundef null) #9
  %32 = getelementptr inbounds nuw i8, ptr %31, i64 24
  br label %37

33:                                               ; preds = %14
  %34 = tail call i64 @llvm.umax.i64(i64 %20, i64 -14)
  %spec.select = xor i64 %34, -1
  %35 = getelementptr inbounds nuw [14 x ptr], ptr @lj_obj_itypename, i64 0, i64 %spec.select
  %36 = load ptr, ptr %35, align 8, !tbaa !45
  br label %37

37:                                               ; preds = %33, %25
  %38 = phi ptr [ %32, %25 ], [ %36, %33 ]
  tail call void (ptr, i32, ...) @lj_err_callerv(ptr noundef nonnull %0, i32 noundef 3533, ptr noundef nonnull %16, ptr noundef %38) #10
  unreachable

39:                                               ; preds = %4
  %40 = load i64, ptr %11, align 8, !tbaa !23
  %.mask = and i64 %40, -140737488355328
  %41 = icmp eq i64 %.mask, -1266637395197952
  br i1 %41, label %63, label %42

42:                                               ; preds = %39
  %43 = icmp eq i32 %3, 0
  %44 = getelementptr inbounds nuw i8, ptr %13, i64 8
  br i1 %43, label %45, label %53

45:                                               ; preds = %42
  %46 = tail call ptr @lj_meta_tget(ptr noundef nonnull %0, ptr noundef nonnull %11, ptr noundef nonnull %44) #9
  %.not53 = icmp eq ptr %46, null
  br i1 %.not53, label %.critedge, label %47

47:                                               ; preds = %45
  %48 = load i64, ptr %46, align 8, !tbaa !23
  %49 = icmp eq i64 %48, -1
  br i1 %49, label %14, label %.thread

.thread:                                          ; preds = %47
  %50 = getelementptr inbounds nuw i8, ptr %0, i64 40
  %51 = load ptr, ptr %50, align 8, !tbaa !4
  %52 = getelementptr inbounds i8, ptr %51, i64 -8
  store i64 %48, ptr %52, align 8, !tbaa !23
  br label %65

53:                                               ; preds = %42
  %54 = tail call ptr @lj_meta_tset(ptr noundef nonnull %0, ptr noundef nonnull %11, ptr noundef nonnull %44) #9
  %.not52 = icmp eq ptr %54, null
  br i1 %.not52, label %.critedge, label %55

55:                                               ; preds = %53
  %56 = getelementptr inbounds nuw i8, ptr %13, i64 16
  %57 = load i64, ptr %56, align 8, !tbaa !23
  store i64 %57, ptr %54, align 8, !tbaa !23
  br label %65

.critedge:                                        ; preds = %45, %53
  %58 = getelementptr inbounds nuw i8, ptr %0, i64 40
  %59 = load ptr, ptr %58, align 8, !tbaa !4
  %60 = load i64, ptr %59, align 8, !tbaa !23
  store i64 %60, ptr %13, align 8, !tbaa !23
  %61 = load ptr, ptr %58, align 8, !tbaa !4
  %62 = getelementptr inbounds i8, ptr %61, i64 -16
  br label %63

63:                                               ; preds = %.critedge, %39
  %.048 = phi ptr [ %11, %39 ], [ %62, %.critedge ]
  %64 = tail call i32 @lj_meta_tailcall(ptr noundef nonnull %0, ptr noundef nonnull %.048) #9
  br label %65

65:                                               ; preds = %.thread, %55, %63
  %.1 = phi i32 [ %64, %63 ], [ 0, %55 ], [ 1, %.thread ]
  ret i32 %.1
}